; Function Attrs: mustprogress nofree norecurse nosync nounwind memory(readwrite, inaccessiblemem: none) uwtable
define hidden noundef zeroext i1 @_ZN3sat10simplifier14cleanup_clauseER7svectorINS_7literalEjE(ptr nocapture noundef nonnull readonly align 8 dereferenceable(288) %this, ptr nocapture noundef nonnull readonly align 8 dereferenceable(8) %c) local_unnamed_addr #5 align 2 {
entry:
  %0 = load ptr, ptr %c, align 8
  %cmp.i = icmp eq ptr %0, null
  br i1 %cmp.i, label %return, label %_ZNK6vectorIN3sat7literalELb0EjE4sizeEv.exit

_ZNK6vectorIN3sat7literalELb0EjE4sizeEv.exit:     ; preds = %entry
  %arrayidx.i = getelementptr inbounds i8, ptr %0, i64 -4
  %1 = load i32, ptr %arrayidx.i, align 4
  %cmp22.not = icmp eq i32 %1, 0
  br i1 %cmp22.not, label %if.then.i, label %for.body.preheader

for.body.preheader:                               ; preds = %_ZNK6vectorIN3sat7literalELb0EjE4sizeEv.exit
  %2 = zext i32 %1 to i64
  br label %for.body

for.body:                                         ; preds = %for.body.preheader, %for.inc
  %indvars.iv = phi i64 [ 0, %for.body.preheader ], [ %indvars.iv.next, %for.inc ]
  %cmp25 = phi i1 [ true, %for.body.preheader ], [ %cmp, %for.inc ]
  %j.024 = phi i32 [ 0, %for.body.preheader ], [ %j.1, %for.inc ]
  %3 = load ptr, ptr %c, align 8
  %arrayidx.i12 = getelementptr inbounds %"class.sat::literal", ptr %3, i64 %indvars.iv
  %l.sroa.0.0.copyload = load i32, ptr %arrayidx.i12, align 4
  %4 = load ptr, ptr %this, align 8
  %m_assignment.i.i = getelementptr inbounds i8, ptr %4, i64 3440
  %5 = load ptr, ptr %m_assignment.i.i, align 8
  %idxprom.i.i.i = zext i32 %l.sroa.0.0.copyload to i64
  %arrayidx.i.i.i = getelementptr inbounds i32, ptr %5, i64 %idxprom.i.i.i
  %6 = load i32, ptr %arrayidx.i.i.i, align 4
  switch i32 %6, label %for.inc [
    i32 0, label %sw.bb
    i32 1, label %return
  ]

sw.bb:                                            ; preds = %for.body
  %7 = zext i32 %j.024 to i64
  %cmp4.not = icmp eq i64 %indvars.iv, %7
  br i1 %cmp4.not, label %if.end, label %if.then

if.then:                                          ; preds = %sw.bb
  %arrayidx.i14 = getelementptr inbounds %"class.sat::literal", ptr %3, i64 %7
  %__tmp.sroa.0.0.copyload.i = load i32, ptr %arrayidx.i14, align 4
  store i32 %l.sroa.0.0.copyload, ptr %arrayidx.i14, align 4
  store i32 %__tmp.sroa.0.0.copyload.i, ptr %arrayidx.i12, align 4
  br label %if.end

if.end:                                           ; preds = %if.then, %sw.bb
  %inc = add i32 %j.024, 1
  br label %for.inc

for.inc:                                          ; preds = %for.body, %if.end
  %j.1 = phi i32 [ %j.024, %for.body ], [ %inc, %if.end ]
  %indvars.iv.next = add nuw nsw i64 %indvars.iv, 1
  %cmp = icmp ult i64 %indvars.iv.next, %2
  %exitcond.not = icmp eq i64 %indvars.iv.next, %2
  br i1 %exitcond.not, label %for.end, label %for.body, !llvm.loop !33

for.end:                                          ; preds = %for.inc
  %.pre = load ptr, ptr %c, align 8
  %tobool.not.i = icmp eq ptr %.pre, null
  br i1 %tobool.not.i, label %return, label %if.then.i

if.then.i:                                        ; preds = %_ZNK6vectorIN3sat7literalELb0EjE4sizeEv.exit, %for.end
  %cmp.lcssa39 = phi i1 [ %cmp, %for.end ], [ false, %_ZNK6vectorIN3sat7literalELb0EjE4sizeEv.exit ]
  %j.0.lcssa38 = phi i32 [ %j.1, %for.end ], [ 0, %_ZNK6vectorIN3sat7literalELb0EjE4sizeEv.exit ]
  %8 = phi ptr [ %.pre, %for.end ], [ %0, %_ZNK6vectorIN3sat7literalELb0EjE4sizeEv.exit ]
  %arrayidx.i17 = getelementptr inbounds i8, ptr %8, i64 -4
  store i32 %j.0.lcssa38, ptr %arrayidx.i17, align 4
  br label %return

return:                                           ; preds = %for.body, %entry, %if.then.i, %for.end
  %cmp20 = phi i1 [ %cmp.lcssa39, %if.then.i ], [ %cmp, %for.end ], [ false, %entry ], [ %cmp25, %for.body ]
  ret i1 %cmp20
}